; Function Attrs: mustprogress nofree norecurse nosync nounwind willreturn memory(read, argmem: readwrite, inaccessiblemem: none) uwtable
define internal noundef i32 @config_video(ptr noundef captures(none) initializes((40, 56), (96, 104), (264, 272)) %0) #7 {
  %2 = load ptr, ptr %0, align 8, !tbaa !71
  %3 = getelementptr inbounds nuw i8, ptr %2, i64 72
  %4 = load ptr, ptr %3, align 8, !tbaa !4
  %5 = getelementptr inbounds nuw i8, ptr %0, i64 48
  store i32 1, ptr %5, align 8, !tbaa !31
  %.sroa.2.0..sroa_idx = getelementptr inbounds nuw i8, ptr %0, i64 52
  store i32 1, ptr %.sroa.2.0..sroa_idx, align 4, !tbaa !31
  %6 = getelementptr inbounds nuw i8, ptr %4, i64 76
  %7 = load i32, ptr %6, align 4, !tbaa !92
  %8 = getelementptr inbounds nuw i8, ptr %0, i64 40
  store i32 %7, ptr %8, align 8, !tbaa !123
  %9 = getelementptr inbounds nuw i8, ptr %4, i64 80
  %10 = load i32, ptr %9, align 8, !tbaa !93
  %11 = getelementptr inbounds nuw i8, ptr %0, i64 44
  store i32 %10, ptr %11, align 4, !tbaa !124
  %12 = getelementptr inbounds nuw i8, ptr %0, i64 264
  %13 = getelementptr inbounds nuw i8, ptr %4, i64 88
  %14 = load i64, ptr %13, align 8
  store i64 %14, ptr %12, align 8
  %15 = getelementptr inbounds nuw i8, ptr %0, i64 96
  %.sroa.01.0.insert.insert.i = tail call i64 @llvm.fshl.i64(i64 %14, i64 %14, i64 32)
  store i64 %.sroa.01.0.insert.insert.i, ptr %15, align 8
  ret i32 0
}